; Function Attrs: nounwind uwtable
define i32 @ossl_ffc_params_FIPS186_2_validate(ptr noundef %0, ptr noundef %1, i32 noundef %2, ptr noundef %3, ptr noundef %4) local_unnamed_addr #0 {
  %6 = icmp eq ptr %1, null
  br i1 %6, label %14, label %7

7:                                                ; preds = %5
  %8 = load ptr, ptr %1, align 8, !tbaa !7
  %9 = icmp eq ptr %8, null
  br i1 %9, label %14, label %10

10:                                               ; preds = %7
  %11 = getelementptr inbounds nuw i8, ptr %1, i64 8
  %12 = load ptr, ptr %11, align 8, !tbaa !13
  %13 = icmp eq ptr %12, null
  br i1 %13, label %14, label %15

14:                                               ; preds = %10, %7, %5
  store i32 2048, ptr %3, align 4, !tbaa !3
  br label %22

15:                                               ; preds = %10
  %16 = tail call i32 @BN_num_bits(ptr noundef nonnull %8) #4
  %17 = sext i32 %16 to i64
  %18 = load ptr, ptr %11, align 8, !tbaa !13
  %19 = tail call i32 @BN_num_bits(ptr noundef %18) #4
  %20 = sext i32 %19 to i64
  %21 = tail call i32 @ossl_ffc_params_FIPS186_2_gen_verify(ptr noundef %0, ptr noundef nonnull %1, i32 noundef 0, i32 noundef %2, i64 noundef %17, i64 noundef %20, ptr noundef %3, ptr noundef %4) #4
  br label %22

22:                                               ; preds = %15, %14
  %.0 = phi i32 [ 0, %14 ], [ %21, %15 ]
  ret i32 %.0
}